target datalayout = "e-m:e-p270:32:32-p271:32:32-p272:64:64-i64:64-i128:128-f80:128-n8:16:32:64-S128"
target triple = "x86_64-unknown-linux-gnu"

%"class.std::set.0" = type { %"class.std::_Rb_tree.1" }
%"class.std::_Rb_tree.1" = type { %"struct.std::_Rb_tree<QuantLib::Observer *, QuantLib::Observer *, std::_Identity<QuantLib::Observer *>, std::less<QuantLib::Observer *>>::_Rb_tree_impl" }
%"struct.std::_Rb_tree<QuantLib::Observer *, QuantLib::Observer *, std::_Identity<QuantLib::Observer *>, std::less<QuantLib::Observer *>>::_Rb_tree_impl" = type { [8 x i8], %"struct.std::_Rb_tree_header" }
%"struct.std::_Rb_tree_header" = type { %"struct.std::_Rb_tree_node_base", i64 }
%"struct.std::_Rb_tree_node_base" = type { i32, ptr, ptr, ptr }
%"class.std::set" = type { %"class.std::_Rb_tree" }
%"class.std::_Rb_tree" = type { %"struct.std::_Rb_tree<boost::shared_ptr<QuantLib::Observable>, boost::shared_ptr<QuantLib::Observable>, std::_Identity<boost::shared_ptr<QuantLib::Observable>>, std::less<boost::shared_ptr<QuantLib::Observable>>>::_Rb_tree_impl" }
%"struct.std::_Rb_tree<boost::shared_ptr<QuantLib::Observable>, boost::shared_ptr<QuantLib::Observable>, std::_Identity<boost::shared_ptr<QuantLib::Observable>>, std::less<boost::shared_ptr<QuantLib::Observable>>>::_Rb_tree_impl" = type { [8 x i8], %"struct.std::_Rb_tree_header" }
%"class.boost::detail::shared_count" = type { ptr }
%"class.QuantLib::Observable" = type { ptr, %"class.std::set.0" }
%"class.QuantLib::Date" = type { i64 }
%"class.QuantLib::Observer" = type { ptr, %"class.std::set" }
%"class.QuantLib::EquityCashFlow" = type { %"class.QuantLib::IndexedCashFlow.base", %"class.boost::shared_ptr.47", %"class.QuantLib::Observable", %"class.QuantLib::Observer" }
%"class.QuantLib::IndexedCashFlow.base" = type <{ %"class.QuantLib::CashFlow.base", [4 x i8], double, double, %"class.boost::shared_ptr.46", %"class.QuantLib::Date", %"class.QuantLib::Date", %"class.QuantLib::Date", i8 }>
%"class.QuantLib::CashFlow.base" = type <{ %"class.QuantLib::Event.base", %"class.QuantLib::LazyObject.base" }>
%"class.QuantLib::Event.base" = type { ptr }
%"class.QuantLib::LazyObject.base" = type <{ ptr, i8, i8, i8, i8 }>
%"class.boost::shared_ptr.46" = type { ptr, %"class.boost::detail::shared_count" }
%"class.boost::shared_ptr.47" = type { ptr, %"class.boost::detail::shared_count" }
%"class.boost::shared_ptr.48" = type { ptr, %"class.boost::detail::shared_count" }

; Function Attrs: mustprogress nounwind uwtable
define linkonce_odr void @_ZN5boost6detail12shared_countC2Ev(ptr noundef nonnull align 8 dereferenceable(8) %this) unnamed_addr #1 comdat align 2 {
entry:
  %this.addr = alloca ptr, align 8
  store ptr %this, ptr %this.addr, align 8, !tbaa !3
  %this1 = load ptr, ptr %this.addr, align 8
  %pi_ = getelementptr inbounds nuw %"class.boost::detail::shared_count", ptr %this1, i32 0, i32 0
  store ptr null, ptr %pi_, align 8, !tbaa !124
  ret void
}

; Function Attrs: inlinehint mustprogress nounwind uwtable
define linkonce_odr void @_ZN5boost6detail21sp_assert_convertibleIN8QuantLib11EquityIndexENS2_5IndexEEEvv() #5 comdat {
entry:
  ret void
}

; Function Attrs: mustprogress nounwind uwtable
define linkonce_odr void @_ZN5boost6detail12shared_countC2EOS1_(ptr noundef nonnull align 8 dereferenceable(8) %this, ptr noundef nonnull align 8 dereferenceable(8) %r) unnamed_addr #1 comdat align 2 {
entry:
  %this.addr = alloca ptr, align 8
  %r.addr = alloca ptr, align 8
  store ptr %this, ptr %this.addr, align 8, !tbaa !3
  store ptr %r, ptr %r.addr, align 8, !tbaa !3
  %this1 = load ptr, ptr %this.addr, align 8
  %pi_ = getelementptr inbounds nuw %"class.boost::detail::shared_count", ptr %this1, i32 0, i32 0
  %0 = load ptr, ptr %r.addr, align 8, !tbaa !3
  %pi_2 = getelementptr inbounds nuw %"class.boost::detail::shared_count", ptr %0, i32 0, i32 0
  %1 = load ptr, ptr %pi_2, align 8, !tbaa !124
  store ptr %1, ptr %pi_, align 8, !tbaa !124
  %2 = load ptr, ptr %r.addr, align 8, !tbaa !3
  %pi_3 = getelementptr inbounds nuw %"class.boost::detail::shared_count", ptr %2, i32 0, i32 0
  store ptr null, ptr %pi_3, align 8, !tbaa !124
  ret void
}

; Function Attrs: mustprogress nounwind uwtable
define linkonce_odr void @_ZN5boost10shared_ptrIN8QuantLib20EquityCashFlowPricerEEC2Ev(ptr noundef nonnull align 8 dereferenceable(16) %this) unnamed_addr #1 comdat align 2 {
entry:
  %this.addr = alloca ptr, align 8
  store ptr %this, ptr %this.addr, align 8, !tbaa !3
  %this1 = load ptr, ptr %this.addr, align 8
  %px = getelementptr inbounds nuw %"class.boost::shared_ptr.47", ptr %this1, i32 0, i32 0
  store ptr null, ptr %px, align 8, !tbaa !44
  %pn = getelementptr inbounds nuw %"class.boost::shared_ptr.47", ptr %this1, i32 0, i32 1
  call void @_ZN5boost6detail12shared_countC2Ev(ptr noundef nonnull align 8 dereferenceable(8) %pn) #15
  ret void
}

; Function Attrs: mustprogress nounwind uwtable
define linkonce_odr void @_ZN5boost10shared_ptrIN8QuantLib5IndexEEC2INS1_11EquityIndexEEEONS0_IT_EENS_6detail24sp_enable_if_convertibleIS6_S2_E4typeE(ptr noundef nonnull align 8 dereferenceable(16) %this, ptr noundef nonnull align 8 dereferenceable(16) %r) unnamed_addr #1 comdat align 2 {
entry:
  %this.addr = alloca ptr, align 8
  %r.addr = alloca ptr, align 8
  store ptr %this, ptr %this.addr, align 8, !tbaa !3
  store ptr %r, ptr %r.addr, align 8, !tbaa !3
  %this1 = load ptr, ptr %this.addr, align 8
  %px = getelementptr inbounds nuw %"class.boost::shared_ptr.46", ptr %this1, i32 0, i32 0
  %0 = load ptr, ptr %r.addr, align 8, !tbaa !3
  %px2 = getelementptr inbounds nuw %"class.boost::shared_ptr.48", ptr %0, i32 0, i32 0
  %1 = load ptr, ptr %px2, align 8, !tbaa !40
  store ptr %1, ptr %px, align 8, !tbaa !42
  %pn = getelementptr inbounds nuw %"class.boost::shared_ptr.46", ptr %this1, i32 0, i32 1
  %2 = load ptr, ptr %r.addr, align 8, !tbaa !3
  %pn3 = getelementptr inbounds nuw %"class.boost::shared_ptr.48", ptr %2, i32 0, i32 1
  call void @_ZN5boost6detail12shared_countC2EOS1_(ptr noundef nonnull align 8 dereferenceable(8) %pn, ptr noundef nonnull align 8 dereferenceable(8) %pn3) #15
  call void @_ZN5boost6detail21sp_assert_convertibleIN8QuantLib11EquityIndexENS2_5IndexEEEvv() #15
  %3 = load ptr, ptr %r.addr, align 8, !tbaa !3
  %px4 = getelementptr inbounds nuw %"class.boost::shared_ptr.48", ptr %3, i32 0, i32 0
  store ptr null, ptr %px4, align 8, !tbaa !40
  ret void
}

; Function Attrs: mustprogress uwtable
define void @_ZN8QuantLib14EquityCashFlowC2EdN5boost10shared_ptrINS_11EquityIndexEEERKNS_4DateES7_S7_b(ptr noundef nonnull align 8 dereferenceable(104) %this, ptr noundef %vtt, double noundef %notional, ptr noundef %index, ptr noundef nonnull align 8 dereferenceable(8) %baseDate, ptr noundef nonnull align 8 dereferenceable(8) %fixingDate, ptr noundef nonnull align 8 dereferenceable(8) %paymentDate, i1 noundef zeroext %growthOnly) unnamed_addr #2 align 2 personality ptr @__gxx_personality_v0 {
entry:
  %this.addr = alloca ptr, align 8
  %vtt.addr = alloca ptr, align 8
  %notional.addr = alloca double, align 8
  %index.indirect_addr = alloca ptr, align 8
  %baseDate.addr = alloca ptr, align 8
  %fixingDate.addr = alloca ptr, align 8
  %paymentDate.addr = alloca ptr, align 8
  %growthOnly.addr = alloca i8, align 1
  %agg.tmp = alloca %"class.boost::shared_ptr.46", align 8
  %exn.slot = alloca ptr, align 8
  %ehselector.slot = alloca i32, align 4
  store ptr %this, ptr %this.addr, align 8, !tbaa !3
  store ptr %vtt, ptr %vtt.addr, align 8, !tbaa !3
  store double %notional, ptr %notional.addr, align 8, !tbaa !14
  store ptr %index, ptr %index.indirect_addr, align 8, !tbaa !3
  store ptr %baseDate, ptr %baseDate.addr, align 8, !tbaa !3
  store ptr %fixingDate, ptr %fixingDate.addr, align 8, !tbaa !3
  store ptr %paymentDate, ptr %paymentDate.addr, align 8, !tbaa !3
  %storedv = zext i1 %growthOnly to i8
  store i8 %storedv, ptr %growthOnly.addr, align 1, !tbaa !39
  %this1 = load ptr, ptr %this.addr, align 8
  %vtt2 = load ptr, ptr %vtt.addr, align 8
  %0 = load double, ptr %notional.addr, align 8, !tbaa !14
  call void @_ZN5boost10shared_ptrIN8QuantLib5IndexEEC2INS1_11EquityIndexEEEONS0_IT_EENS_6detail24sp_enable_if_convertibleIS6_S2_E4typeE(ptr noundef nonnull align 8 dereferenceable(16) %agg.tmp, ptr noundef nonnull align 8 dereferenceable(16) %index) #15
  %1 = load ptr, ptr %baseDate.addr, align 8, !tbaa !3
  %2 = load ptr, ptr %fixingDate.addr, align 8, !tbaa !3
  %3 = load ptr, ptr %paymentDate.addr, align 8, !tbaa !3
  %4 = load i8, ptr %growthOnly.addr, align 1, !tbaa !39, !range !21, !noundef !22
  %loadedv = trunc i8 %4 to i1
  %5 = getelementptr inbounds ptr, ptr %vtt2, i64 1
  invoke void @_ZN8QuantLib15IndexedCashFlowC2EdN5boost10shared_ptrINS_5IndexEEERKNS_4DateES7_S7_b(ptr noundef nonnull align 8 dereferenceable(81) %this1, ptr noundef %5, double noundef %0, ptr noundef %agg.tmp, ptr noundef nonnull align 8 dereferenceable(8) %1, ptr noundef nonnull align 8 dereferenceable(8) %2, ptr noundef nonnull align 8 dereferenceable(8) %3, i1 noundef zeroext %loadedv)
          to label %invoke.cont unwind label %lpad

invoke.cont:                                      ; preds = %entry
  call void @_ZN5boost10shared_ptrIN8QuantLib5IndexEED2Ev(ptr noundef nonnull align 8 dereferenceable(16) %agg.tmp) #15
  %6 = load ptr, ptr %vtt2, align 8
  store ptr %6, ptr %this1, align 8, !tbaa !12
  %7 = getelementptr inbounds ptr, ptr %vtt2, i64 14
  %8 = load ptr, ptr %7, align 8
  %vtable = load ptr, ptr %this1, align 8, !tbaa !12
  %vbase.offset.ptr = getelementptr i8, ptr %vtable, i64 -24
  %vbase.offset = load i64, ptr %vbase.offset.ptr, align 8
  %add.ptr = getelementptr inbounds i8, ptr %this1, i64 %vbase.offset
  store ptr %8, ptr %add.ptr, align 8, !tbaa !12
  %9 = getelementptr inbounds ptr, ptr %vtt2, i64 15
  %10 = load ptr, ptr %9, align 8
  %add.ptr4 = getelementptr inbounds i8, ptr %this1, i64 8
  store ptr %10, ptr %add.ptr4, align 8, !tbaa !12
  %11 = getelementptr inbounds ptr, ptr %vtt2, i64 16
  %12 = load ptr, ptr %11, align 8
  %vtable5 = load ptr, ptr %this1, align 8, !tbaa !12
  %vbase.offset.ptr6 = getelementptr i8, ptr %vtable5, i64 -32
  %vbase.offset7 = load i64, ptr %vbase.offset.ptr6, align 8
  %add.ptr8 = getelementptr inbounds i8, ptr %this1, i64 %vbase.offset7
  store ptr %12, ptr %add.ptr8, align 8, !tbaa !12
  %pricer_ = getelementptr inbounds nuw %"class.QuantLib::EquityCashFlow", ptr %this1, i32 0, i32 1
  call void @_ZN5boost10shared_ptrIN8QuantLib20EquityCashFlowPricerEEC2Ev(ptr noundef nonnull align 8 dereferenceable(16) %pricer_) #15
  ret void

lpad:                                             ; preds = %entry
  %13 = landingpad { ptr, i32 }
          cleanup
  %14 = extractvalue { ptr, i32 } %13, 0
  store ptr %14, ptr %exn.slot, align 8
  %15 = extractvalue { ptr, i32 } %13, 1
  store i32 %15, ptr %ehselector.slot, align 4
  call void @_ZN5boost10shared_ptrIN8QuantLib5IndexEED2Ev(ptr noundef nonnull align 8 dereferenceable(16) %agg.tmp) #15
  br label %eh.resume

eh.resume:                                        ; preds = %lpad
  %exn = load ptr, ptr %exn.slot, align 8
  %sel = load i32, ptr %ehselector.slot, align 4
  %lpad.val = insertvalue { ptr, i32 } poison, ptr %exn, 0
  %lpad.val9 = insertvalue { ptr, i32 } %lpad.val, i32 %sel, 1
  resume { ptr, i32 } %lpad.val9
}