; Function Attrs: mustprogress uwtable
define void @_ZN8QuantLib14EquityCashFlowC2EdN5boost10shared_ptrINS_11EquityIndexEEERKNS_4DateES7_S7_b(ptr noundef nonnull align 8 dereferenceable(104) %this, ptr noundef %vtt, double noundef %notional, ptr nocapture noundef %index, ptr noundef nonnull align 8 dereferenceable(8) %baseDate, ptr noundef nonnull align 8 dereferenceable(8) %fixingDate, ptr noundef nonnull align 8 dereferenceable(8) %paymentDate, i1 noundef zeroext %growthOnly) unnamed_addr #7 align 2 personality ptr @__gxx_personality_v0 {
entry:
  %agg.tmp = alloca %"class.boost::shared_ptr.46", align 8
  %0 = load ptr, ptr %index, align 8, !tbaa !76
  store ptr %0, ptr %agg.tmp, align 8, !tbaa !78
  %pn.i = getelementptr inbounds nuw i8, ptr %agg.tmp, i64 8
  %pn3.i = getelementptr inbounds nuw i8, ptr %index, i64 8
  %1 = load ptr, ptr %pn3.i, align 8, !tbaa !31
  store ptr %1, ptr %pn.i, align 8, !tbaa !31
  tail call void @llvm.memset.p0.i64(ptr noundef nonnull align 8 dereferenceable(16) %index, i8 0, i64 16, i1 false)
  %2 = getelementptr inbounds i8, ptr %vtt, i64 8
  invoke void @_ZN8QuantLib15IndexedCashFlowC2EdN5boost10shared_ptrINS_5IndexEEERKNS_4DateES7_S7_b(ptr noundef nonnull align 8 dereferenceable(81) %this, ptr noundef nonnull %2, double noundef %notional, ptr noundef nonnull %agg.tmp, ptr noundef nonnull align 8 dereferenceable(8) %baseDate, ptr noundef nonnull align 8 dereferenceable(8) %fixingDate, ptr noundef nonnull align 8 dereferenceable(8) %paymentDate, i1 noundef zeroext %growthOnly)
          to label %invoke.cont unwind label %lpad

invoke.cont:                                      ; preds = %entry
  %3 = load ptr, ptr %pn.i, align 8, !tbaa !31
  %cmp.not.i.i = icmp eq ptr %3, null
  br i1 %cmp.not.i.i, label %_ZN5boost10shared_ptrIN8QuantLib5IndexEED2Ev.exit, label %if.then.i.i

if.then.i.i:                                      ; preds = %invoke.cont
  %use_count_.i.i.i = getelementptr inbounds nuw i8, ptr %3, i64 8
  %4 = atomicrmw sub ptr %use_count_.i.i.i, i32 1 acq_rel, align 4
  %cmp.i.i.i = icmp eq i32 %4, 1
  br i1 %cmp.i.i.i, label %if.then.i.i.i, label %_ZN5boost10shared_ptrIN8QuantLib5IndexEED2Ev.exit

if.then.i.i.i:                                    ; preds = %if.then.i.i
  %vtable.i.i.i = load ptr, ptr %3, align 8, !tbaa !39
  %vfn.i.i.i = getelementptr inbounds i8, ptr %vtable.i.i.i, i64 16
  %5 = load ptr, ptr %vfn.i.i.i, align 8
  invoke void %5(ptr noundef nonnull align 8 dereferenceable(16) %3)
          to label %.noexc.i.i unwind label %terminate.lpad.i.i

.noexc.i.i:                                       ; preds = %if.then.i.i.i
  %weak_count_.i.i.i.i = getelementptr inbounds nuw i8, ptr %3, i64 12
  %6 = atomicrmw sub ptr %weak_count_.i.i.i.i, i32 1 acq_rel, align 4
  %cmp.i.i.i.i = icmp eq i32 %6, 1
  br i1 %cmp.i.i.i.i, label %if.then.i.i.i.i, label %_ZN5boost10shared_ptrIN8QuantLib5IndexEED2Ev.exit

if.then.i.i.i.i:                                  ; preds = %.noexc.i.i
  %vtable.i.i.i.i = load ptr, ptr %3, align 8, !tbaa !39
  %vfn.i.i.i.i = getelementptr inbounds i8, ptr %vtable.i.i.i.i, i64 24
  %7 = load ptr, ptr %vfn.i.i.i.i, align 8
  invoke void %7(ptr noundef nonnull align 8 dereferenceable(16) %3)
          to label %_ZN5boost10shared_ptrIN8QuantLib5IndexEED2Ev.exit unwind label %terminate.lpad.i.i

terminate.lpad.i.i:                               ; preds = %if.then.i.i.i.i, %if.then.i.i.i
  %8 = landingpad { ptr, i32 }
          catch ptr null
  %9 = extractvalue { ptr, i32 } %8, 0
  call void @__clang_call_terminate(ptr %9) #30
  unreachable

_ZN5boost10shared_ptrIN8QuantLib5IndexEED2Ev.exit: ; preds = %invoke.cont, %if.then.i.i, %.noexc.i.i, %if.then.i.i.i.i
  %10 = load ptr, ptr %vtt, align 8
  store ptr %10, ptr %this, align 8, !tbaa !39
  %11 = getelementptr inbounds i8, ptr %vtt, i64 112
  %12 = load ptr, ptr %11, align 8
  %vbase.offset.ptr = getelementptr i8, ptr %10, i64 -24
  %vbase.offset = load i64, ptr %vbase.offset.ptr, align 8
  %add.ptr = getelementptr inbounds i8, ptr %this, i64 %vbase.offset
  store ptr %12, ptr %add.ptr, align 8, !tbaa !39
  %13 = getelementptr inbounds i8, ptr %vtt, i64 120
  %14 = load ptr, ptr %13, align 8
  %add.ptr4 = getelementptr inbounds i8, ptr %this, i64 8
  store ptr %14, ptr %add.ptr4, align 8, !tbaa !39
  %15 = getelementptr inbounds i8, ptr %vtt, i64 128
  %16 = load ptr, ptr %15, align 8
  %vtable5 = load ptr, ptr %this, align 8, !tbaa !39
  %vbase.offset.ptr6 = getelementptr i8, ptr %vtable5, i64 -32
  %vbase.offset7 = load i64, ptr %vbase.offset.ptr6, align 8
  %add.ptr8 = getelementptr inbounds i8, ptr %this, i64 %vbase.offset7
  store ptr %16, ptr %add.ptr8, align 8, !tbaa !39
  %pricer_ = getelementptr inbounds nuw i8, ptr %this, i64 88
  call void @llvm.memset.p0.i64(ptr noundef nonnull align 8 dereferenceable(16) %pricer_, i8 0, i64 16, i1 false)
  ret void

lpad:                                             ; preds = %entry
  %17 = landingpad { ptr, i32 }
          cleanup
  call void @_ZN5boost10shared_ptrIN8QuantLib5IndexEED2Ev(ptr noundef nonnull align 8 dereferenceable(16) %agg.tmp) #29
  resume { ptr, i32 } %17
}